; Function Attrs: mustprogress uwtable
define void @_ZN2cv4gapi5fluid6Buffer4Priv5resetEv(ptr noundef nonnull align 8 captures(none) dereferenceable(188) initializes((132, 136)) %0) local_unnamed_addr #4 align 2 {
  %2 = getelementptr inbounds nuw i8, ptr %0, i64 128
  %3 = load i8, ptr %2, align 8, !tbaa !111, !range !112, !noundef !113
  %4 = trunc nuw i8 %3 to i1
  %5 = getelementptr inbounds nuw i8, ptr %0, i64 176
  %6 = load i32, ptr %5, align 8
  %7 = getelementptr inbounds nuw i8, ptr %0, i64 184
  %8 = load i32, ptr %7, align 8
  %9 = select i1 %4, i32 %8, i32 0
  %10 = add nsw i32 %9, %6
  %11 = getelementptr inbounds nuw i8, ptr %0, i64 132
  store i32 %10, ptr %11, align 4, !tbaa !115
  %12 = getelementptr inbounds nuw i8, ptr %0, i64 160
  %13 = load ptr, ptr %12, align 8, !tbaa !114
  %14 = getelementptr inbounds nuw i8, ptr %0, i64 72
  %15 = load i32, ptr %14, align 8, !tbaa !140
  %16 = icmp sgt i32 %15, 0
  br i1 %16, label %.lr.ph.preheader.i, label %_ZN2cv4gapi5fluid13BufferStorage14updateOutCacheERNS1_6Buffer5CacheEii.exit

.lr.ph.preheader.i:                               ; preds = %1
  %wide.trip.count.i = zext nneg i32 %15 to i64
  br label %.lr.ph.i

.lr.ph.i:                                         ; preds = %.lr.ph.i, %.lr.ph.preheader.i
  %indvars.iv.i = phi i64 [ 0, %.lr.ph.preheader.i ], [ %indvars.iv.next.i, %.lr.ph.i ]
  %17 = load ptr, ptr %13, align 8, !tbaa !13
  %18 = getelementptr inbounds nuw i8, ptr %17, i64 32
  %19 = load ptr, ptr %18, align 8
  %20 = trunc i64 %indvars.iv.i to i32
  %21 = add i32 %10, %20
  %22 = tail call noundef ptr %19(ptr noundef nonnull align 8 dereferenceable(104) %13, i32 noundef %21)
  %23 = load ptr, ptr %0, align 8, !tbaa !62
  %24 = getelementptr inbounds nuw ptr, ptr %23, i64 %indvars.iv.i
  store ptr %22, ptr %24, align 8, !tbaa !60
  %indvars.iv.next.i = add nuw nsw i64 %indvars.iv.i, 1
  %exitcond.not.i = icmp eq i64 %indvars.iv.next.i, %wide.trip.count.i
  br i1 %exitcond.not.i, label %_ZN2cv4gapi5fluid13BufferStorage14updateOutCacheERNS1_6Buffer5CacheEii.exit, label %.lr.ph.i, !llvm.loop !64

_ZN2cv4gapi5fluid13BufferStorage14updateOutCacheERNS1_6Buffer5CacheEii.exit: ; preds = %.lr.ph.i, %1
  ret void
}